; Function Attrs: nounwind uwtable
define ptr @Java_java_lang_Class_getPrimitiveClass(ptr noundef %0, ptr nocapture noundef readnone %1, ptr noundef %2) local_unnamed_addr #0 {
  %4 = icmp eq ptr %2, null
  br i1 %4, label %5, label %6

5:                                                ; preds = %3
  tail call void @JNU_ThrowNullPointerException(ptr noundef %0, ptr noundef null) #4
  br label %17

6:                                                ; preds = %3
  %7 = load ptr, ptr %0, align 8
  %8 = getelementptr inbounds i8, ptr %7, i64 1352
  %9 = load ptr, ptr %8, align 8
  %10 = tail call ptr %9(ptr noundef nonnull %0, ptr noundef nonnull %2, ptr noundef null) #4
  %11 = icmp eq ptr %10, null
  br i1 %11, label %17, label %12

12:                                               ; preds = %6
  %13 = tail call ptr @JVM_FindPrimitiveClass(ptr noundef nonnull %0, ptr noundef nonnull %10) #4
  %14 = load ptr, ptr %0, align 8
  %15 = getelementptr inbounds i8, ptr %14, i64 1360
  %16 = load ptr, ptr %15, align 8
  tail call void %16(ptr noundef nonnull %0, ptr noundef nonnull %2, ptr noundef nonnull %10) #4
  br label %17

17:                                               ; preds = %6, %12, %5
  %.0 = phi ptr [ null, %5 ], [ %13, %12 ], [ null, %6 ]
  ret ptr %.0
}